; ModuleID = 'source-C-CXX/36/1138.c'
source_filename = "source-C-CXX/36/1138.c"
target datalayout = "e-m:e-p270:32:32-p271:32:32-p272:64:64-i64:64-f80:128-n8:16:32:64-S128"
target triple = "x86_64-pc-linux-gnu"

@.str = private unnamed_addr constant [3 x i8] c"%d\00", align 1
@.str.1 = private unnamed_addr constant [3 x i8] c"%s\00", align 1
@.str.3 = private unnamed_addr constant [4 x i8] c"%c\0A\00", align 1
@str = private unnamed_addr constant [3 x i8] c"no\00", align 1

; Function Attrs: nofree nounwind sspstrong uwtable
define dso_local i32 @main() local_unnamed_addr #0 {
  %1 = alloca i32, align 4
  %2 = alloca [100000 x i8], align 16
  %3 = alloca [100000 x i8], align 16
  %4 = bitcast i32* %1 to i8*
  call void @llvm.lifetime.start.p0i8(i64 4, i8* nonnull %4) #7
  %5 = getelementptr inbounds [100000 x i8], [100000 x i8]* %2, i64 0, i64 0
  call void @llvm.lifetime.start.p0i8(i64 100000, i8* nonnull %5) #7
  %6 = call i32 (i8*, ...) @__isoc99_scanf(i8* getelementptr inbounds ([3 x i8], [3 x i8]* @.str, i64 0, i64 0), i32* nonnull %1)
  %7 = getelementptr inbounds [100000 x i8], [100000 x i8]* %3, i64 0, i64 0
  %8 = load i32, i32* %1, align 4, !tbaa !5
  %9 = icmp sgt i32 %8, 0
  br i1 %9, label %10, label %76

10:                                               ; preds = %0, %72
  %11 = phi i32 [ %73, %72 ], [ 0, %0 ]
  call void @llvm.lifetime.start.p0i8(i64 100000, i8* nonnull %7) #7
  call void @llvm.memset.p0i8.i64(i8* noundef nonnull align 16 dereferenceable(100000) %7, i8 0, i64 100000, i1 false)
  store i8 48, i8* %7, align 16
  %12 = call i32 (i8*, ...) @__isoc99_scanf(i8* getelementptr inbounds ([3 x i8], [3 x i8]* @.str.1, i64 0, i64 0), i8* nonnull %5)
  %13 = call i64 @strlen(i8* noundef nonnull %5) #8
  %14 = load i8, i8* %5, align 16, !tbaa !9
  %15 = icmp eq i8 %14, 0
  br i1 %15, label %67, label %16

16:                                               ; preds = %10
  %17 = trunc i64 %13 to i32
  %18 = shl i64 %13, 32
  %19 = ashr exact i64 %18, 32
  %20 = add i32 %17, -1
  br label %21

21:                                               ; preds = %16, %58
  %22 = phi i64 [ 0, %16 ], [ %60, %58 ]
  %23 = phi i8 [ %14, %16 ], [ %62, %58 ]
  %24 = phi i32 [ 0, %16 ], [ %59, %58 ]
  %25 = trunc i64 %22 to i32
  %26 = call i32 @llvm.smin.i32(i32 %25, i32 %20)
  %27 = icmp eq i64 %22, 0
  br i1 %27, label %36, label %28

28:                                               ; preds = %21, %33
  %29 = phi i64 [ %34, %33 ], [ 0, %21 ]
  %30 = getelementptr inbounds [100000 x i8], [100000 x i8]* %2, i64 0, i64 %29
  %31 = load i8, i8* %30, align 1, !tbaa !9
  %32 = icmp eq i8 %31, %23
  br i1 %32, label %36, label %33

33:                                               ; preds = %28
  %34 = add nuw nsw i64 %29, 1
  %35 = icmp eq i64 %34, %22
  br i1 %35, label %36, label %28, !llvm.loop !10

36:                                               ; preds = %33, %28, %21
  %37 = phi i64 [ 0, %21 ], [ %29, %28 ], [ %22, %33 ]
  %38 = and i64 %37, 4294967295
  %39 = icmp eq i64 %38, %22
  br i1 %39, label %40, label %58

40:                                               ; preds = %36, %44
  %41 = phi i64 [ %42, %44 ], [ %19, %36 ]
  %42 = add nsw i64 %41, -1
  %43 = icmp sgt i64 %42, %22
  br i1 %43, label %44, label %50

44:                                               ; preds = %40
  %45 = getelementptr inbounds [100000 x i8], [100000 x i8]* %2, i64 0, i64 %42
  %46 = load i8, i8* %45, align 1, !tbaa !9
  %47 = icmp eq i8 %46, %23
  br i1 %47, label %48, label %40, !llvm.loop !12

48:                                               ; preds = %44
  %49 = trunc i64 %42 to i32
  br label %50

50:                                               ; preds = %40, %48
  %51 = phi i32 [ %49, %48 ], [ %26, %40 ]
  %52 = zext i32 %51 to i64
  %53 = icmp eq i64 %22, %52
  br i1 %53, label %54, label %58

54:                                               ; preds = %50
  %55 = sext i32 %24 to i64
  %56 = getelementptr inbounds [100000 x i8], [100000 x i8]* %3, i64 0, i64 %55
  store i8 %23, i8* %56, align 1, !tbaa !9
  %57 = add nsw i32 %24, 1
  br label %58

58:                                               ; preds = %50, %54, %36
  %59 = phi i32 [ %57, %54 ], [ %24, %50 ], [ %24, %36 ]
  %60 = add nuw i64 %22, 1
  %61 = getelementptr inbounds [100000 x i8], [100000 x i8]* %2, i64 0, i64 %60
  %62 = load i8, i8* %61, align 1, !tbaa !9
  %63 = icmp eq i8 %62, 0
  br i1 %63, label %64, label %21, !llvm.loop !13

64:                                               ; preds = %58
  %65 = load i8, i8* %7, align 16, !tbaa !9
  %66 = icmp eq i8 %65, 48
  br i1 %66, label %67, label %69

67:                                               ; preds = %10, %64
  %68 = call i32 @puts(i8* nonnull dereferenceable(1) getelementptr inbounds ([3 x i8], [3 x i8]* @str, i64 0, i64 0))
  br label %72

69:                                               ; preds = %64
  %70 = sext i8 %65 to i32
  %71 = call i32 (i8*, ...) @printf(i8* nonnull dereferenceable(1) getelementptr inbounds ([4 x i8], [4 x i8]* @.str.3, i64 0, i64 0), i32 %70)
  br label %72

72:                                               ; preds = %69, %67
  call void @llvm.lifetime.end.p0i8(i64 100000, i8* nonnull %7) #7
  %73 = add nuw nsw i32 %11, 1
  %74 = load i32, i32* %1, align 4, !tbaa !5
  %75 = icmp slt i32 %73, %74
  br i1 %75, label %10, label %76, !llvm.loop !14

76:                                               ; preds = %72, %0
  call void @llvm.lifetime.end.p0i8(i64 100000, i8* nonnull %5) #7
  call void @llvm.lifetime.end.p0i8(i64 4, i8* nonnull %4) #7
  ret i32 0
}

; Function Attrs: argmemonly mustprogress nofree nosync nounwind willreturn
declare void @llvm.lifetime.start.p0i8(i64 immarg, i8* nocapture) #1

; Function Attrs: nofree nounwind
declare noundef i32 @__isoc99_scanf(i8* nocapture noundef readonly, ...) local_unnamed_addr #2

; Function Attrs: argmemonly mustprogress nofree nounwind willreturn writeonly
declare void @llvm.memset.p0i8.i64(i8* nocapture writeonly, i8, i64, i1 immarg) #3

; Function Attrs: argmemonly mustprogress nofree nounwind readonly willreturn
declare i64 @strlen(i8* nocapture) local_unnamed_addr #4

; Function Attrs: argmemonly mustprogress nofree nosync nounwind willreturn
declare void @llvm.lifetime.end.p0i8(i64 immarg, i8* nocapture) #1

; Function Attrs: nofree nounwind
declare noundef i32 @printf(i8* nocapture noundef readonly, ...) local_unnamed_addr #2

; Function Attrs: nofree nounwind
declare noundef i32 @puts(i8* nocapture noundef readonly) local_unnamed_addr #5

; Function Attrs: nofree nosync nounwind readnone speculatable willreturn
declare i32 @llvm.smin.i32(i32, i32) #6


!llvm.module.flags = !{!0, !1, !2, !3}
!llvm.ident = !{!4}

!0 = !{i32 1, !"wchar_size", i32 4}
!1 = !{i32 7, !"PIC Level", i32 2}
!2 = !{i32 7, !"PIE Level", i32 2}
!3 = !{i32 7, !"uwtable", i32 1}
!4 = !{!"clang version 13.0.0"}
!5 = !{!6, !6, i64 0}
!6 = !{!"int", !7, i64 0}
!7 = !{!"omnipotent char", !8, i64 0}
!8 = !{!"Simple C/C++ TBAA"}
!9 = !{!7, !7, i64 0}
!10 = distinct !{!10, !11}
!11 = !{!"llvm.loop.mustprogress"}
!12 = distinct !{!12, !11}
!13 = distinct !{!13, !11}
!14 = distinct !{!14, !11}
